target datalayout = "e-m:e-p270:32:32-p271:32:32-p272:64:64-i64:64-i128:128-f80:128-n8:16:32:64-S128"
target triple = "x86_64-pc-linux-gnu"

%struct.stat = type { i64, i64, i64, i32, i32, i32, i32, i64, i64, i64, i64, %struct.timespec, %struct.timespec, %struct.timespec, [3 x i64] }
%struct.timespec = type { i64, i64 }

; Function Attrs: nounwind uwtable
define i32 @dt_util_test_image_file(ptr noundef %0) #0 {
  %2 = alloca i32, align 4
  %3 = alloca ptr, align 8
  %4 = alloca %struct.stat, align 8
  %5 = alloca i32, align 4
  %6 = alloca i32, align 4
  %7 = alloca i32, align 4
  store ptr %0, ptr %3, align 8, !tbaa !6
  %8 = load ptr, ptr %3, align 8, !tbaa !6
  %9 = call i32 @g_access(ptr noundef %8, i32 noundef 4)
  %10 = icmp ne i32 %9, 0
  br i1 %10, label %11, label %12

11:                                               ; preds = %1
  store i32 0, ptr %2, align 4
  br label %38

12:                                               ; preds = %1
  call void @llvm.lifetime.start.p0(i64 144, ptr %4) #18
  %13 = load ptr, ptr %3, align 8, !tbaa !6
  %14 = call i32 @stat(ptr noundef %13, ptr noundef %4) #18
  %15 = icmp ne i32 %14, 0
  br i1 %15, label %16, label %17

16:                                               ; preds = %12
  store i32 0, ptr %2, align 4
  store i32 1, ptr %5, align 4
  br label %37

17:                                               ; preds = %12
  call void @llvm.lifetime.start.p0(i64 4, ptr %6) #18
  %18 = getelementptr inbounds nuw %struct.stat, ptr %4, i32 0, i32 3
  %19 = load i32, ptr %18, align 8, !tbaa !28
  %20 = and i32 %19, 61440
  %21 = icmp eq i32 %20, 32768
  %22 = zext i1 %21 to i32
  %23 = icmp ne i32 %22, 0
  %24 = zext i1 %23 to i32
  store i32 %24, ptr %6, align 4, !tbaa !15
  call void @llvm.lifetime.start.p0(i64 4, ptr %7) #18
  %25 = getelementptr inbounds nuw %struct.stat, ptr %4, i32 0, i32 8
  %26 = load i64, ptr %25, align 8, !tbaa !31
  %27 = icmp sgt i64 %26, 0
  %28 = zext i1 %27 to i32
  store i32 %28, ptr %7, align 4, !tbaa !15
  %29 = load i32, ptr %6, align 4, !tbaa !15
  %30 = icmp ne i32 %29, 0
  br i1 %30, label %31, label %34

31:                                               ; preds = %17
  %32 = load i32, ptr %7, align 4, !tbaa !15
  %33 = icmp ne i32 %32, 0
  br label %34

34:                                               ; preds = %31, %17
  %35 = phi i1 [ false, %17 ], [ %33, %31 ]
  %36 = zext i1 %35 to i32
  store i32 %36, ptr %2, align 4
  store i32 1, ptr %5, align 4
  call void @llvm.lifetime.end.p0(i64 4, ptr %7) #18
  call void @llvm.lifetime.end.p0(i64 4, ptr %6) #18
  br label %37

37:                                               ; preds = %34, %16
  call void @llvm.lifetime.end.p0(i64 144, ptr %4) #18
  br label %38

38:                                               ; preds = %37, %11
  %39 = load i32, ptr %2, align 4
  ret i32 %39
}