; Function Attrs: nounwind uwtable
define range(i32 0, 2) i32 @dt_util_test_image_file(ptr noundef %0) local_unnamed_addr #0 {
  %2 = alloca %struct.stat, align 8
  %3 = tail call i32 @g_access(ptr noundef %0, i32 noundef 4) #27
  %.not = icmp eq i32 %3, 0
  br i1 %.not, label %4, label %17

4:                                                ; preds = %1
  call void @llvm.lifetime.start.p0(i64 144, ptr nonnull %2) #27
  %5 = call i32 @stat(ptr noundef %0, ptr noundef nonnull %2) #27
  %.not4 = icmp eq i32 %5, 0
  br i1 %.not4, label %6, label %16

6:                                                ; preds = %4
  %7 = getelementptr inbounds nuw i8, ptr %2, i64 24
  %8 = load i32, ptr %7, align 8, !tbaa !16
  %9 = and i32 %8, 61440
  %10 = icmp eq i32 %9, 32768
  %11 = getelementptr inbounds nuw i8, ptr %2, i64 48
  %12 = load i64, ptr %11, align 8, !tbaa !21
  %13 = icmp sgt i64 %12, 0
  %14 = select i1 %10, i1 %13, i1 false
  %15 = zext i1 %14 to i32
  br label %16

16:                                               ; preds = %4, %6
  %.1 = phi i32 [ %15, %6 ], [ 0, %4 ]
  call void @llvm.lifetime.end.p0(i64 144, ptr nonnull %2) #27
  br label %17

17:                                               ; preds = %1, %16
  %.0 = phi i32 [ %.1, %16 ], [ 0, %1 ]
  ret i32 %.0
}